target datalayout = "e-m:e-p270:32:32-p271:32:32-p272:64:64-i64:64-i128:128-f80:128-n8:16:32:64-S128"
target triple = "x86_64-pc-linux-gnu"

%"class.std::__cxx11::basic_string" = type { %"struct.std::__cxx11::basic_string<char>::_Alloc_hider", i64, %union.anon }
%"struct.std::__cxx11::basic_string<char>::_Alloc_hider" = type { ptr }
%union.anon = type { i64, [8 x i8] }
%struct.common_params_sampling = type { i32, i32, i32, i32, i32, float, float, float, float, float, float, float, float, i32, float, float, float, float, float, i32, i32, i32, float, float, float, i8, i8, i8, %"class.std::vector", %"class.std::vector.3", %"class.std::__cxx11::basic_string", i8, %"class.std::vector.8", %"class.std::vector.13", %"class.std::set", %"class.std::vector.21" }
%"class.std::vector" = type { %"struct.std::_Vector_base" }
%"struct.std::_Vector_base" = type { %"struct.std::_Vector_base<std::__cxx11::basic_string<char>, std::allocator<std::__cxx11::basic_string<char>>>::_Vector_impl" }
%"struct.std::_Vector_base<std::__cxx11::basic_string<char>, std::allocator<std::__cxx11::basic_string<char>>>::_Vector_impl" = type { %"struct.std::_Vector_base<std::__cxx11::basic_string<char>, std::allocator<std::__cxx11::basic_string<char>>>::_Vector_impl_data" }
%"struct.std::_Vector_base<std::__cxx11::basic_string<char>, std::allocator<std::__cxx11::basic_string<char>>>::_Vector_impl_data" = type { ptr, ptr, ptr }
%"class.std::vector.3" = type { %"struct.std::_Vector_base.4" }
%"struct.std::_Vector_base.4" = type { %"struct.std::_Vector_base<common_sampler_type, std::allocator<common_sampler_type>>::_Vector_impl" }
%"struct.std::_Vector_base<common_sampler_type, std::allocator<common_sampler_type>>::_Vector_impl" = type { %"struct.std::_Vector_base<common_sampler_type, std::allocator<common_sampler_type>>::_Vector_impl_data" }
%"struct.std::_Vector_base<common_sampler_type, std::allocator<common_sampler_type>>::_Vector_impl_data" = type { ptr, ptr, ptr }
%"class.std::vector.8" = type { %"struct.std::_Vector_base.9" }
%"struct.std::_Vector_base.9" = type { %"struct.std::_Vector_base<common_grammar_trigger, std::allocator<common_grammar_trigger>>::_Vector_impl" }
%"struct.std::_Vector_base<common_grammar_trigger, std::allocator<common_grammar_trigger>>::_Vector_impl" = type { %"struct.std::_Vector_base<common_grammar_trigger, std::allocator<common_grammar_trigger>>::_Vector_impl_data" }
%"struct.std::_Vector_base<common_grammar_trigger, std::allocator<common_grammar_trigger>>::_Vector_impl_data" = type { ptr, ptr, ptr }
%"class.std::vector.13" = type { %"struct.std::_Vector_base.14" }
%"struct.std::_Vector_base.14" = type { %"struct.std::_Vector_base<int, std::allocator<int>>::_Vector_impl" }
%"struct.std::_Vector_base<int, std::allocator<int>>::_Vector_impl" = type { %"struct.std::_Vector_base<int, std::allocator<int>>::_Vector_impl_data" }
%"struct.std::_Vector_base<int, std::allocator<int>>::_Vector_impl_data" = type { ptr, ptr, ptr }
%"class.std::set" = type { %"class.std::_Rb_tree" }
%"class.std::_Rb_tree" = type { %"struct.std::_Rb_tree<int, int, std::_Identity<int>, std::less<int>>::_Rb_tree_impl" }
%"struct.std::_Rb_tree<int, int, std::_Identity<int>, std::less<int>>::_Rb_tree_impl" = type { [8 x i8], %"struct.std::_Rb_tree_header" }
%"struct.std::_Rb_tree_header" = type { %"struct.std::_Rb_tree_node_base", i64 }
%"struct.std::_Rb_tree_node_base" = type { i32, ptr, ptr, ptr }
%"class.std::vector.21" = type { %"struct.std::_Vector_base.22" }
%"struct.std::_Vector_base.22" = type { %"struct.std::_Vector_base<llama_logit_bias, std::allocator<llama_logit_bias>>::_Vector_impl" }
%"struct.std::_Vector_base<llama_logit_bias, std::allocator<llama_logit_bias>>::_Vector_impl" = type { %"struct.std::_Vector_base<llama_logit_bias, std::allocator<llama_logit_bias>>::_Vector_impl_data" }
%"struct.std::_Vector_base<llama_logit_bias, std::allocator<llama_logit_bias>>::_Vector_impl_data" = type { ptr, ptr, ptr }
%struct.common_sampler = type { %struct.common_params_sampling, ptr, ptr, %struct.ring_buffer, %"class.std::vector.31", %struct.llama_token_data_array }
%struct.ring_buffer = type { i64, i64, i64, i64, %"class.std::vector.13" }
%"class.std::vector.31" = type { %"struct.std::_Vector_base.32" }
%"struct.std::_Vector_base.32" = type { %"struct.std::_Vector_base<llama_token_data, std::allocator<llama_token_data>>::_Vector_impl" }
%"struct.std::_Vector_base<llama_token_data, std::allocator<llama_token_data>>::_Vector_impl" = type { %"struct.std::_Vector_base<llama_token_data, std::allocator<llama_token_data>>::_Vector_impl_data" }
%"struct.std::_Vector_base<llama_token_data, std::allocator<llama_token_data>>::_Vector_impl_data" = type { ptr, ptr, ptr }
%struct.llama_token_data_array = type { ptr, i64, i64, i8 }

@.str.39 = private unnamed_addr constant [33 x i8] c"ring buffer: index out of bounds\00", align 1
@_ZTISt13runtime_error = external constant ptr

; Function Attrs: mustprogress nounwind uwtable
define linkonce_odr noundef nonnull align 4 dereferenceable(4) ptr @_ZNKSt6vectorIiSaIiEEixEm(ptr noundef nonnull align 8 dereferenceable(24) %0, i64 noundef %1) #3 comdat align 2 {
  %3 = alloca ptr, align 8
  %4 = alloca i64, align 8
  store ptr %0, ptr %3, align 8, !tbaa !131
  store i64 %1, ptr %4, align 8, !tbaa !117
  %5 = load ptr, ptr %3, align 8
  %6 = getelementptr inbounds nuw %"struct.std::_Vector_base.14", ptr %5, i32 0, i32 0
  %7 = getelementptr inbounds nuw %"struct.std::_Vector_base<int, std::allocator<int>>::_Vector_impl_data", ptr %6, i32 0, i32 0
  %8 = load ptr, ptr %7, align 8, !tbaa !133
  %9 = load i64, ptr %4, align 8, !tbaa !117
  %10 = getelementptr inbounds nuw i32, ptr %8, i64 %9
  ret ptr %10
}

; Function Attrs: mustprogress uwtable
define linkonce_odr noundef nonnull align 4 dereferenceable(4) ptr @_ZNK11ring_bufferIiE3ratEm(ptr noundef nonnull align 8 dereferenceable(56) %0, i64 noundef %1) #0 comdat align 2 personality ptr @__gxx_personality_v0 {
  %3 = alloca ptr, align 8
  %4 = alloca i64, align 8
  %5 = alloca ptr, align 8
  %6 = alloca i32, align 4
  store ptr %0, ptr %3, align 8, !tbaa !136
  store i64 %1, ptr %4, align 8, !tbaa !117
  %7 = load ptr, ptr %3, align 8
  %8 = load i64, ptr %4, align 8, !tbaa !117
  %9 = getelementptr inbounds nuw %struct.ring_buffer, ptr %7, i32 0, i32 1
  %10 = load i64, ptr %9, align 8, !tbaa !139
  %11 = icmp uge i64 %8, %10
  br i1 %11, label %12, label %19

12:                                               ; preds = %2
  %13 = call ptr @__cxa_allocate_exception(i64 16) #15
  invoke void @_ZNSt13runtime_errorC1EPKc(ptr noundef nonnull align 8 dereferenceable(16) %13, ptr noundef @.str.39)
          to label %14 unwind label %15

14:                                               ; preds = %12
  call void @__cxa_throw(ptr %13, ptr @_ZTISt13runtime_error, ptr @_ZNSt13runtime_errorD1Ev) #16
  unreachable

15:                                               ; preds = %12
  %16 = landingpad { ptr, i32 }
          cleanup
  %17 = extractvalue { ptr, i32 } %16, 0
  store ptr %17, ptr %5, align 8
  %18 = extractvalue { ptr, i32 } %16, 1
  store i32 %18, ptr %6, align 4
  call void @__cxa_free_exception(ptr %13) #15
  br label %33

19:                                               ; preds = %2
  %20 = getelementptr inbounds nuw %struct.ring_buffer, ptr %7, i32 0, i32 4
  %21 = getelementptr inbounds nuw %struct.ring_buffer, ptr %7, i32 0, i32 2
  %22 = load i64, ptr %21, align 8, !tbaa !140
  %23 = getelementptr inbounds nuw %struct.ring_buffer, ptr %7, i32 0, i32 1
  %24 = load i64, ptr %23, align 8, !tbaa !139
  %25 = add i64 %22, %24
  %26 = load i64, ptr %4, align 8, !tbaa !117
  %27 = sub i64 %25, %26
  %28 = sub i64 %27, 1
  %29 = getelementptr inbounds nuw %struct.ring_buffer, ptr %7, i32 0, i32 0
  %30 = load i64, ptr %29, align 8, !tbaa !138
  %31 = urem i64 %28, %30
  %32 = call noundef nonnull align 4 dereferenceable(4) ptr @_ZNKSt6vectorIiSaIiEEixEm(ptr noundef nonnull align 8 dereferenceable(24) %20, i64 noundef %31) #15
  ret ptr %32

33:                                               ; preds = %15
  %34 = load ptr, ptr %5, align 8
  %35 = load i32, ptr %6, align 4
  %36 = insertvalue { ptr, i32 } poison, ptr %34, 0
  %37 = insertvalue { ptr, i32 } %36, i32 %35, 1
  resume { ptr, i32 } %37
}

; Function Attrs: mustprogress uwtable
define noundef i32 @_Z19common_sampler_lastPK14common_sampler(ptr noundef %0) #0 {
  %2 = alloca ptr, align 8
  store ptr %0, ptr %2, align 8, !tbaa !102
  %3 = load ptr, ptr %2, align 8, !tbaa !102
  %4 = getelementptr inbounds nuw %struct.common_sampler, ptr %3, i32 0, i32 3
  %5 = call noundef nonnull align 4 dereferenceable(4) ptr @_ZNK11ring_bufferIiE3ratEm(ptr noundef nonnull align 8 dereferenceable(56) %4, i64 noundef 0)
  %6 = load i32, ptr %5, align 4, !tbaa !101
  ret i32 %6
}