; Function Attrs: mustprogress uwtable
define noundef i32 @_Z19common_sampler_lastPK14common_sampler(ptr noundef readonly captures(none) %0) local_unnamed_addr #0 personality ptr @__gxx_personality_v0 {
  %2 = getelementptr inbounds nuw i8, ptr %0, i64 336
  %3 = load i64, ptr %2, align 8, !tbaa !133
  %.not.i.not = icmp eq i64 %3, 0
  br i1 %.not.i.not, label %4, label %_ZNK11ring_bufferIiE3ratEm.exit

4:                                                ; preds = %1
  %5 = tail call ptr @__cxa_allocate_exception(i64 16) #23
  invoke void @_ZNSt13runtime_errorC1EPKc(ptr noundef nonnull align 8 dereferenceable(16) %5, ptr noundef nonnull @.str.39)
          to label %6 unwind label %7

6:                                                ; preds = %4
  tail call void @__cxa_throw(ptr nonnull %5, ptr nonnull @_ZTISt13runtime_error, ptr nonnull @_ZNSt13runtime_errorD1Ev) #24
  unreachable

7:                                                ; preds = %4
  %8 = landingpad { ptr, i32 }
          cleanup
  tail call void @__cxa_free_exception(ptr nonnull %5) #23
  resume { ptr, i32 } %8

_ZNK11ring_bufferIiE3ratEm.exit:                  ; preds = %1
  %9 = getelementptr inbounds nuw i8, ptr %0, i64 328
  %10 = getelementptr inbounds nuw i8, ptr %0, i64 360
  %11 = getelementptr inbounds nuw i8, ptr %0, i64 344
  %12 = load i64, ptr %11, align 8, !tbaa !134
  %13 = add i64 %3, -1
  %14 = add i64 %13, %12
  %15 = load i64, ptr %9, align 8, !tbaa !92
  %16 = urem i64 %14, %15
  %17 = load ptr, ptr %10, align 8, !tbaa !78
  %18 = getelementptr inbounds nuw i32, ptr %17, i64 %16
  %19 = load i32, ptr %18, align 4, !tbaa !91
  ret i32 %19
}